; Function Attrs: nounwind uwtable
define void @SparseStressMajorizationSmoother_delete(ptr noundef captures(address_is_null) %0) local_unnamed_addr #0 {
  %.not.i = icmp eq ptr %0, null
  br i1 %.not.i, label %StressMajorizationSmoother_delete.exit, label %2

2:                                                ; preds = %1
  %3 = getelementptr inbounds nuw i8, ptr %0, i64 8
  %4 = load ptr, ptr %3, align 8, !tbaa !34
  %.not13.i = icmp eq ptr %4, null
  br i1 %.not13.i, label %6, label %5

5:                                                ; preds = %2
  tail call void @SparseMatrix_delete(ptr noundef nonnull %4) #16
  br label %6

6:                                                ; preds = %5, %2
  %7 = getelementptr inbounds nuw i8, ptr %0, i64 16
  %8 = load ptr, ptr %7, align 8, !tbaa !35
  %.not14.i = icmp eq ptr %8, null
  br i1 %.not14.i, label %10, label %9

9:                                                ; preds = %6
  tail call void @SparseMatrix_delete(ptr noundef nonnull %8) #16
  br label %10

10:                                               ; preds = %9, %6
  %11 = getelementptr inbounds nuw i8, ptr %0, i64 24
  %12 = load ptr, ptr %11, align 8, !tbaa !24
  tail call void @free(ptr noundef %12) #16
  %13 = getelementptr inbounds nuw i8, ptr %0, i64 40
  %14 = load ptr, ptr %13, align 8, !tbaa !52
  %.not15.i = icmp eq ptr %14, null
  br i1 %.not15.i, label %18, label %15

15:                                               ; preds = %10
  %16 = getelementptr inbounds nuw i8, ptr %0, i64 32
  %17 = load ptr, ptr %16, align 8, !tbaa !53
  tail call void %17(ptr noundef nonnull %14) #16
  br label %18

18:                                               ; preds = %15, %10
  tail call void @free(ptr noundef nonnull %0) #16
  br label %StressMajorizationSmoother_delete.exit

StressMajorizationSmoother_delete.exit:           ; preds = %1, %18
  ret void
}